target datalayout = "e-m:e-p270:32:32-p271:32:32-p272:64:64-i64:64-i128:128-f80:128-n8:16:32:64-S128"
target triple = "x86_64-pc-linux-gnu"

%struct._lv_circle_buf_t = type { %struct._lv_array_t, i32, i32, i8 }
%struct._lv_array_t = type { ptr, i32, i32, i32, i8 }

; Function Attrs: nounwind uwtable
define i32 @lv_circle_buf_size(ptr noundef %0) #0 {
  %2 = alloca ptr, align 8
  store ptr %0, ptr %2, align 8, !tbaa !7
  br label %3

3:                                                ; preds = %1
  %4 = load ptr, ptr %2, align 8, !tbaa !7
  %5 = icmp ne ptr %4, null
  br i1 %5, label %10, label %6

6:                                                ; preds = %3
  br label %7

7:                                                ; preds = %6
  br label %8

8:                                                ; preds = %7
  br label %9

9:                                                ; preds = %8, %9
  br label %9

10:                                               ; preds = %3
  br label %11

11:                                               ; preds = %10
  %12 = load ptr, ptr %2, align 8, !tbaa !7
  %13 = getelementptr inbounds nuw %struct._lv_circle_buf_t, ptr %12, i32 0, i32 2
  %14 = load i32, ptr %13, align 4, !tbaa !15
  %15 = load ptr, ptr %2, align 8, !tbaa !7
  %16 = getelementptr inbounds nuw %struct._lv_circle_buf_t, ptr %15, i32 0, i32 1
  %17 = load i32, ptr %16, align 8, !tbaa !10
  %18 = sub i32 %14, %17
  ret i32 %18
}

; Function Attrs: nounwind uwtable
define i32 @lv_circle_buf_capacity(ptr noundef %0) #0 {
  %2 = alloca ptr, align 8
  store ptr %0, ptr %2, align 8, !tbaa !7
  br label %3

3:                                                ; preds = %1
  %4 = load ptr, ptr %2, align 8, !tbaa !7
  %5 = icmp ne ptr %4, null
  br i1 %5, label %10, label %6

6:                                                ; preds = %3
  br label %7

7:                                                ; preds = %6
  br label %8

8:                                                ; preds = %7
  br label %9

9:                                                ; preds = %8, %9
  br label %9

10:                                               ; preds = %3
  br label %11

11:                                               ; preds = %10
  %12 = load ptr, ptr %2, align 8, !tbaa !7
  %13 = getelementptr inbounds nuw %struct._lv_circle_buf_t, ptr %12, i32 0, i32 0
  %14 = call i32 @lv_array_capacity(ptr noundef %13)
  ret i32 %14
}

; Function Attrs: nounwind uwtable
define i32 @lv_circle_buf_remain(ptr noundef %0) #0 {
  %2 = alloca ptr, align 8
  store ptr %0, ptr %2, align 8, !tbaa !7
  br label %3

3:                                                ; preds = %1
  %4 = load ptr, ptr %2, align 8, !tbaa !7
  %5 = icmp ne ptr %4, null
  br i1 %5, label %10, label %6

6:                                                ; preds = %3
  br label %7

7:                                                ; preds = %6
  br label %8

8:                                                ; preds = %7
  br label %9

9:                                                ; preds = %8, %9
  br label %9

10:                                               ; preds = %3
  br label %11

11:                                               ; preds = %10
  %12 = load ptr, ptr %2, align 8, !tbaa !7
  %13 = call i32 @lv_circle_buf_capacity(ptr noundef %12)
  %14 = load ptr, ptr %2, align 8, !tbaa !7
  %15 = call i32 @lv_circle_buf_size(ptr noundef %14)
  %16 = sub i32 %13, %15
  ret i32 %16
}

; Function Attrs: nounwind uwtable
define ptr @lv_circle_buf_tail(ptr noundef %0) #0 {
  %2 = alloca ptr, align 8
  store ptr %0, ptr %2, align 8, !tbaa !7
  br label %3

3:                                                ; preds = %1
  %4 = load ptr, ptr %2, align 8, !tbaa !7
  %5 = icmp ne ptr %4, null
  br i1 %5, label %10, label %6

6:                                                ; preds = %3
  br label %7

7:                                                ; preds = %6
  br label %8

8:                                                ; preds = %7
  br label %9

9:                                                ; preds = %8, %9
  br label %9

10:                                               ; preds = %3
  br label %11

11:                                               ; preds = %10
  %12 = load ptr, ptr %2, align 8, !tbaa !7
  %13 = getelementptr inbounds nuw %struct._lv_circle_buf_t, ptr %12, i32 0, i32 0
  %14 = load ptr, ptr %2, align 8, !tbaa !7
  %15 = getelementptr inbounds nuw %struct._lv_circle_buf_t, ptr %14, i32 0, i32 2
  %16 = load i32, ptr %15, align 4, !tbaa !15
  %17 = load ptr, ptr %2, align 8, !tbaa !7
  %18 = call i32 @lv_circle_buf_capacity(ptr noundef %17)
  %19 = urem i32 %16, %18
  %20 = call ptr @lv_array_at(ptr noundef %13, i32 noundef %19)
  ret ptr %20
}

; Function Attrs: nounwind uwtable
define zeroext i1 @lv_circle_buf_is_full(ptr noundef %0) #0 {
  %2 = alloca ptr, align 8
  store ptr %0, ptr %2, align 8, !tbaa !7
  br label %3

3:                                                ; preds = %1
  %4 = load ptr, ptr %2, align 8, !tbaa !7
  %5 = icmp ne ptr %4, null
  br i1 %5, label %10, label %6

6:                                                ; preds = %3
  br label %7

7:                                                ; preds = %6
  br label %8

8:                                                ; preds = %7
  br label %9

9:                                                ; preds = %8, %9
  br label %9

10:                                               ; preds = %3
  br label %11

11:                                               ; preds = %10
  %12 = load ptr, ptr %2, align 8, !tbaa !7
  %13 = call i32 @lv_circle_buf_remain(ptr noundef %12)
  %14 = icmp ne i32 %13, 0
  %15 = xor i1 %14, true
  ret i1 %15
}

; Function Attrs: nounwind uwtable
define i32 @lv_circle_buf_fill(ptr noundef %0, i32 noundef %1, ptr noundef %2, ptr noundef %3) #0 {
  %5 = alloca ptr, align 8
  %6 = alloca i32, align 4
  %7 = alloca ptr, align 8
  %8 = alloca ptr, align 8
  %9 = alloca i32, align 4
  %10 = alloca ptr, align 8
  %11 = alloca i32, align 4
  store ptr %0, ptr %5, align 8, !tbaa !7
  store i32 %1, ptr %6, align 4, !tbaa !3
  store ptr %2, ptr %7, align 8, !tbaa !19
  store ptr %3, ptr %8, align 8, !tbaa !19
  br label %12

12:                                               ; preds = %4
  %13 = load ptr, ptr %5, align 8, !tbaa !7
  %14 = icmp ne ptr %13, null
  br i1 %14, label %19, label %15

15:                                               ; preds = %12
  br label %16

16:                                               ; preds = %15
  br label %17

17:                                               ; preds = %16
  br label %18

18:                                               ; preds = %17, %18
  br label %18

19:                                               ; preds = %12
  br label %20

20:                                               ; preds = %19
  br label %21

21:                                               ; preds = %20
  %22 = load ptr, ptr %7, align 8, !tbaa !19
  %23 = icmp ne ptr %22, null
  br i1 %23, label %28, label %24

24:                                               ; preds = %21
  br label %25

25:                                               ; preds = %24
  br label %26

26:                                               ; preds = %25
  br label %27

27:                                               ; preds = %26, %27
  br label %27

28:                                               ; preds = %21
  br label %29

29:                                               ; preds = %28
  call void @llvm.lifetime.start.p0(i64 4, ptr %9) #4
  store i32 0, ptr %9, align 4, !tbaa !3
  br label %30

30:                                               ; preds = %66, %29
  %31 = load i32, ptr %6, align 4, !tbaa !3
  %32 = icmp ugt i32 %31, 0
  br i1 %32, label %33, label %37

33:                                               ; preds = %30
  %34 = load ptr, ptr %5, align 8, !tbaa !7
  %35 = call zeroext i1 @lv_circle_buf_is_full(ptr noundef %34)
  %36 = xor i1 %35, true
  br label %37

37:                                               ; preds = %33, %30
  %38 = phi i1 [ false, %30 ], [ %36, %33 ]
  br i1 %38, label %39, label %67

39:                                               ; preds = %37
  call void @llvm.lifetime.start.p0(i64 8, ptr %10) #4
  %40 = load ptr, ptr %5, align 8, !tbaa !7
  %41 = call ptr @lv_circle_buf_tail(ptr noundef %40)
  store ptr %41, ptr %10, align 8, !tbaa !19
  %42 = load ptr, ptr %7, align 8, !tbaa !19
  %43 = load ptr, ptr %10, align 8, !tbaa !19
  %44 = load ptr, ptr %5, align 8, !tbaa !7
  %45 = getelementptr inbounds nuw %struct._lv_circle_buf_t, ptr %44, i32 0, i32 0
  %46 = getelementptr inbounds nuw %struct._lv_array_t, ptr %45, i32 0, i32 3
  %47 = load i32, ptr %46, align 8, !tbaa !25
  %48 = load i32, ptr %9, align 4, !tbaa !3
  %49 = load ptr, ptr %8, align 8, !tbaa !19
  %50 = call zeroext i1 %42(ptr noundef %43, i32 noundef %47, i32 noundef %48, ptr noundef %49)
  %51 = zext i1 %50 to i32
  %52 = icmp eq i32 %51, 1
  br i1 %52, label %53, label %60

53:                                               ; preds = %39
  %54 = load ptr, ptr %5, align 8, !tbaa !7
  %55 = getelementptr inbounds nuw %struct._lv_circle_buf_t, ptr %54, i32 0, i32 2
  %56 = load i32, ptr %55, align 4, !tbaa !15
  %57 = add i32 %56, 1
  store i32 %57, ptr %55, align 4, !tbaa !15
  %58 = load i32, ptr %9, align 4, !tbaa !3
  %59 = add i32 %58, 1
  store i32 %59, ptr %9, align 4, !tbaa !3
  br label %61

60:                                               ; preds = %39
  store i32 15, ptr %11, align 4
  br label %64

61:                                               ; preds = %53
  %62 = load i32, ptr %6, align 4, !tbaa !3
  %63 = add i32 %62, -1
  store i32 %63, ptr %6, align 4, !tbaa !3
  store i32 0, ptr %11, align 4
  br label %64

64:                                               ; preds = %61, %60
  call void @llvm.lifetime.end.p0(i64 8, ptr %10) #4
  %65 = load i32, ptr %11, align 4
  switch i32 %65, label %69 [
    i32 0, label %66
    i32 15, label %67
  ]

66:                                               ; preds = %64
  br label %30, !llvm.loop !26

67:                                               ; preds = %64, %37
  %68 = load i32, ptr %9, align 4, !tbaa !3
  store i32 1, ptr %11, align 4
  call void @llvm.lifetime.end.p0(i64 4, ptr %9) #4
  ret i32 %68

69:                                               ; preds = %64
  unreachable
}