; Function Attrs: nounwind uwtable
define i32 @lv_circle_buf_fill(ptr noundef %0, i32 noundef %1, ptr noundef readonly captures(address_is_null) %2, ptr noundef %3) local_unnamed_addr #0 {
  %.not = icmp eq ptr %0, null
  br i1 %.not, label %.preheader, label %5

.preheader:                                       ; preds = %4, %.preheader
  br label %.preheader

5:                                                ; preds = %4
  %.not19 = icmp eq ptr %2, null
  br i1 %.not19, label %.preheader27, label %.preheader28

.preheader28:                                     ; preds = %5
  %.not2029 = icmp eq i32 %1, 0
  br i1 %.not2029, label %.critedge, label %lv_circle_buf_is_full.exit.lr.ph

lv_circle_buf_is_full.exit.lr.ph:                 ; preds = %.preheader28
  %6 = getelementptr inbounds nuw i8, ptr %0, i64 28
  %7 = getelementptr inbounds nuw i8, ptr %0, i64 24
  %8 = getelementptr inbounds nuw i8, ptr %0, i64 16
  br label %lv_circle_buf_is_full.exit

.preheader27:                                     ; preds = %5, %.preheader27
  br label %.preheader27

lv_circle_buf_is_full.exit:                       ; preds = %lv_circle_buf_is_full.exit.lr.ph, %18
  %.01431 = phi i32 [ %1, %lv_circle_buf_is_full.exit.lr.ph ], [ %22, %18 ]
  %.01530 = phi i32 [ 0, %lv_circle_buf_is_full.exit.lr.ph ], [ %21, %18 ]
  %9 = tail call i32 @lv_array_capacity(ptr noundef nonnull %0) #6
  %10 = load i32, ptr %6, align 4, !tbaa !12
  %11 = load i32, ptr %7, align 8, !tbaa !3
  %.neg.i.i = sub i32 %9, %10
  %12 = sub i32 0, %11
  %.not2.i = icmp eq i32 %.neg.i.i, %12
  br i1 %.not2.i, label %.critedge, label %lv_circle_buf_tail.exit

lv_circle_buf_tail.exit:                          ; preds = %lv_circle_buf_is_full.exit
  %13 = tail call i32 @lv_array_capacity(ptr noundef nonnull %0) #6
  %14 = urem i32 %10, %13
  %15 = tail call ptr @lv_array_at(ptr noundef nonnull %0, i32 noundef %14) #6
  %16 = load i32, ptr %8, align 8, !tbaa !20
  %17 = tail call zeroext i1 %2(ptr noundef %15, i32 noundef %16, i32 noundef %.01530, ptr noundef %3) #6
  br i1 %17, label %18, label %.critedge

18:                                               ; preds = %lv_circle_buf_tail.exit
  %19 = load i32, ptr %6, align 4, !tbaa !12
  %20 = add i32 %19, 1
  store i32 %20, ptr %6, align 4, !tbaa !12
  %21 = add nuw i32 %.01530, 1
  %22 = add i32 %.01431, -1
  %.not20 = icmp eq i32 %22, 0
  br i1 %.not20, label %.critedge, label %lv_circle_buf_is_full.exit

.critedge:                                        ; preds = %lv_circle_buf_is_full.exit, %18, %lv_circle_buf_tail.exit, %.preheader28
  %.015.lcssa = phi i32 [ 0, %.preheader28 ], [ %.01530, %lv_circle_buf_tail.exit ], [ %1, %18 ], [ %.01530, %lv_circle_buf_is_full.exit ]
  ret i32 %.015.lcssa
}